; Function Attrs: nounwind uwtable
define ptr @l_Lean_Elab_Term_withNarrowedTacticReuse___at_Lean_Elab_Term_runTactic___spec__20___lambda__1___boxed(ptr noundef %0, ptr noundef %1, ptr noundef %2, ptr noundef %3, ptr noundef %4, ptr noundef %5, ptr noundef %6, ptr noundef %7, ptr noundef %8, ptr noundef %9, ptr noundef %10, ptr noundef %11) local_unnamed_addr #0 {
  %13 = ptrtoint ptr %1 to i64
  %14 = and i64 %13, 1
  %.not.i14 = icmp eq i64 %14, 0
  br i1 %.not.i14, label %15, label %l_Lean_Elab_Term_withNarrowedTacticReuse___at_Lean_Elab_Term_runTactic___spec__20___lambda__1.exit

15:                                               ; preds = %12
  %.val.i.i = load i32, ptr %1, align 4, !tbaa !7
  %16 = icmp sgt i32 %.val.i.i, 0
  br i1 %16, label %17, label %19, !prof !12

17:                                               ; preds = %15
  %18 = add nuw i32 %.val.i.i, 1
  store i32 %18, ptr %1, align 4, !tbaa !7
  br label %l_Lean_Elab_Term_withNarrowedTacticReuse___at_Lean_Elab_Term_runTactic___spec__20___lambda__1.exit

19:                                               ; preds = %15
  %.not.i.i = icmp eq i32 %.val.i.i, 0
  br i1 %.not.i.i, label %l_Lean_Elab_Term_withNarrowedTacticReuse___at_Lean_Elab_Term_runTactic___spec__20___lambda__1.exit, label %20

20:                                               ; preds = %19
  tail call void @lean_inc_ref_cold(ptr noundef nonnull %1) #7
  br label %l_Lean_Elab_Term_withNarrowedTacticReuse___at_Lean_Elab_Term_runTactic___spec__20___lambda__1.exit

l_Lean_Elab_Term_withNarrowedTacticReuse___at_Lean_Elab_Term_runTactic___spec__20___lambda__1.exit: ; preds = %12, %17, %19, %20
  %21 = tail call ptr @lean_apply_1(ptr noundef %0, ptr noundef %1) #7
  %22 = tail call ptr @l_Lean_Elab_Term_withReuseContext___at_Lean_Elab_Term_runTactic___spec__21(ptr noundef %1, ptr noundef %21, ptr noundef %3, ptr noundef %4, ptr noundef %5, ptr noundef %6, ptr noundef %7, ptr noundef %8, ptr noundef %9, ptr noundef %10, ptr noundef %11)
  %23 = ptrtoint ptr %2 to i64
  %24 = and i64 %23, 1
  %.not = icmp eq i64 %24, 0
  br i1 %.not, label %25, label %lean_dec.exit

25:                                               ; preds = %l_Lean_Elab_Term_withNarrowedTacticReuse___at_Lean_Elab_Term_runTactic___spec__20___lambda__1.exit
  %26 = load i32, ptr %2, align 4, !tbaa !7
  %27 = icmp sgt i32 %26, 1
  br i1 %27, label %28, label %30, !prof !12

28:                                               ; preds = %25
  %29 = add nsw i32 %26, -1
  store i32 %29, ptr %2, align 4, !tbaa !7
  br label %lean_dec.exit

30:                                               ; preds = %25
  %.not.i = icmp eq i32 %26, 0
  br i1 %.not.i, label %lean_dec.exit, label %31

31:                                               ; preds = %30
  tail call void @lean_dec_ref_cold(ptr noundef nonnull %2) #7
  br label %lean_dec.exit

lean_dec.exit:                                    ; preds = %31, %30, %28, %l_Lean_Elab_Term_withNarrowedTacticReuse___at_Lean_Elab_Term_runTactic___spec__20___lambda__1.exit
  ret ptr %22
}